target datalayout = "e-m:e-p270:32:32-p271:32:32-p272:64:64-i64:64-i128:128-f80:128-n8:16:32:64-S128"
target triple = "x86_64-pc-linux-gnu"

%struct.fake_rsa_keydata = type { i32, i32 }

; Function Attrs: nounwind uwtable
define internal ptr @fake_rsa_keymgmt_load(ptr noundef %0, i64 noundef %1) #0 {
  %3 = alloca ptr, align 8
  %4 = alloca ptr, align 8
  %5 = alloca i64, align 8
  %6 = alloca ptr, align 8
  %7 = alloca i32, align 4
  store ptr %0, ptr %4, align 8, !tbaa !19
  store i64 %1, ptr %5, align 8, !tbaa !33
  call void @llvm.lifetime.start.p0(i64 8, ptr %6) #6
  store ptr null, ptr %6, align 8, !tbaa !26
  %8 = load i64, ptr %5, align 8, !tbaa !33
  %9 = icmp ne i64 %8, 8
  br i1 %9, label %10, label %11

10:                                               ; preds = %2
  store ptr null, ptr %3, align 8
  store i32 1, ptr %7, align 4
  br label %22

11:                                               ; preds = %2
  %12 = load ptr, ptr %4, align 8, !tbaa !19
  %13 = load ptr, ptr %12, align 8, !tbaa !26
  store ptr %13, ptr %6, align 8, !tbaa !26
  %14 = load ptr, ptr %6, align 8, !tbaa !26
  %15 = getelementptr inbounds nuw %struct.fake_rsa_keydata, ptr %14, i32 0, i32 1
  %16 = load i32, ptr %15, align 4, !tbaa !28
  %17 = icmp ne i32 %16, 1
  br i1 %17, label %18, label %19

18:                                               ; preds = %11
  store ptr null, ptr %3, align 8
  store i32 1, ptr %7, align 4
  br label %22

19:                                               ; preds = %11
  %20 = load ptr, ptr %4, align 8, !tbaa !19
  store ptr null, ptr %20, align 8, !tbaa !26
  %21 = load ptr, ptr %6, align 8, !tbaa !26
  store ptr %21, ptr %3, align 8
  store i32 1, ptr %7, align 4
  br label %22

22:                                               ; preds = %19, %18, %10
  call void @llvm.lifetime.end.p0(i64 8, ptr %6) #6
  %23 = load ptr, ptr %3, align 8
  ret ptr %23
}