; Function Attrs: mustprogress nofree norecurse nosync nounwind willreturn memory(read, argmem: readwrite, inaccessiblemem: none) uwtable
define internal ptr @fake_rsa_keymgmt_load(ptr noundef captures(none) %0, i64 noundef %1) #8 {
  %.not = icmp eq i64 %1, 8
  br i1 %.not, label %3, label %8

3:                                                ; preds = %2
  %4 = load ptr, ptr %0, align 8, !tbaa !17
  %5 = getelementptr inbounds nuw i8, ptr %4, i64 4
  %6 = load i32, ptr %5, align 4, !tbaa !12
  %.not5 = icmp eq i32 %6, 1
  br i1 %.not5, label %7, label %8

7:                                                ; preds = %3
  store ptr null, ptr %0, align 8, !tbaa !17
  br label %8

8:                                                ; preds = %3, %2, %7
  %.0 = phi ptr [ %4, %7 ], [ null, %2 ], [ null, %3 ]
  ret ptr %.0
}